Certificate:
    Data:
        Version: 3 (0x2)
        Serial Number:
            7d:5b:51:26:b4:76:ba:11:db:74:16:0b:bc:53:0d:a7
        Signature Algorithm: sha384WithRSAEncryption
        Issuer: C = US, ST = New Jersey, L = Jersey City, O = The USERTRUST Network, CN = USERTrust RSA Certification Authority
        Validity
            Not Before: Nov  2 00:00:00 2018 GMT
            Not After : Dec 31 23:59:59 2030 GMT
        Subject: C = GB, ST = Greater Manchester, L = Salford, O = Sectigo Limited, CN = Sectigo RSA Domain Validation Secure Server CA
        Subject Public Key Info:
            Public Key Algorithm: rsaEncryption
                RSA Public-Key: (2048 bit)
                Modulus:
                    00:d6:73:33:d6:d7:3c:20:d0:00:d2:17:45:b8:d6:
                    3e:07:a2:3f:c7:41:ee:32:30:c9:b0:6c:fd:f4:9f:
                    cb:12:98:0f:2d:3f:8d:4d:01:0c:82:0f:17:7f:62:
                    2e:e9:b8:48:79:fb:16:83:4e:ad:d7:32:25:93:b7:
                    07:bf:b9:50:3f:a9:4c:c3:40:2a:e9:39:ff:d9:81:
                    ca:1f:16:32:41:da:80:26:b9:23:7a:87:20:1e:e3:
                    ff:20:9a:3c:95:44:6f:87:75:06:90:40:b4:32:93:
                    16:09:10:08:23:3e:d2:dd:87:0f:6f:5d:51:14:6a:
                    0a:69:c5:4f:01:72:69:cf:d3:93:4c:6d:04:a0:a3:
                    1b:82:7e:b1:9a:b9:ed:c5:9e:c5:37:78:9f:9a:08:
                    34:fb:56:2e:58:c4:09:0e:06:64:5b:bc:37:dc:f1:
                    9f:28:68:a8:56:b0:92:a3:5c:9f:bb:88:98:08:1b:
                    24:1d:ab:30:85:ae:af:b0:2e:9e:7a:9d:c1:c0:42:
                    1c:e2:02:f0:ea:e0:4a:d2:ef:90:0e:b4:c1:40:16:
                    f0:6f:85:42:4a:64:f7:a4:30:a0:fe:bf:2e:a3:27:
                    5a:8e:8b:58:b8:ad:c3:19:17:84:63:ed:6f:56:fd:
                    83:cb:60:34:c4:74:be:e6:9d:db:e1:e4:e5:ca:0c:
                    5f:15
                Exponent: 65537 (0x10001)
        X509v3 extensions:
            X509v3 Authority Key Identifier: 
                keyid:53:79:BF:5A:AA:2B:4A:CF:54:80:E1:D8:9B:C0:9D:F2:B2:03:66:CB

            X509v3 Subject Key Identifier: 
                8D:8C:5E:C4:54:AD:8A:E1:77:E9:9B:F9:9B:05:E1:B8:01:8D:61:E1
            X509v3 Key Usage: critical
                Digital Signature, Certificate Sign, CRL Sign
            X509v3 Basic Constraints: critical
                CA:TRUE, pathlen:0
            X509v3 Extended Key Usage: 
                TLS Web Server Authentication, TLS Web Client Authentication
            X509v3 Certificate Policies: 
                Policy: X509v3 Any Policy
                Policy: 2.23.140.1.2.1

            X509v3 CRL Distribution Points: 

                Full Name:
                  URI:http://crl.usertrust.com/USERTrustRSACertificationAuthority.crl

            Authority Information Access: 
                CA Issuers - URI:http://crt.usertrust.com/USERTrustRSAAddTrustCA.crt
                OCSP - URI:http://ocsp.usertrust.com

    Signature Algorithm: sha384WithRSAEncryption
         32:bf:61:bd:0e:48:c3:4f:c7:ba:47:4d:f8:9c:78:19:01:dc:
         13:1d:80:6f:fc:c3:70:b4:52:9a:31:33:9a:57:52:fb:31:9e:
         6b:a4:ef:54:aa:89:8d:40:17:68:f8:11:10:7c:d2:ca:b1:f1:
         55:86:c7:ee:b3:36:91:86:f6:39:51:bf:46:bf:0f:a0:ba:b4:
         f7:7e:49:c4:2a:36:17:9e:e4:68:39:7a:af:94:4e:56:6f:b2:
         7b:3b:bf:0a:86:bd:cd:c5:77:1c:03:b8:38:b1:a2:1f:5f:7e:
         db:8a:dc:46:48:b6:68:0a:cf:b2:b5:b4:e2:34:e4:67:a9:38:
         66:09:5e:d2:b8:fc:9d:28:3a:17:40:27:c2:72:4e:29:fd:21:
         3c:7c:cf:13:fb:96:2c:c5:31:44:fd:13:ed:d5:9b:a9:69:68:
         77:7c:ee:e1:ff:a4:f9:36:38:08:53:39:a2:84:34:9c:19:f3:
         be:0e:ac:d5:24:37:eb:23:a8:78:d0:d3:e7:ef:92:47:64:62:
         39:22:ef:c6:f7:11:be:22:85:c6:66:44:24:26:8e:10:32:8d:
         c8:93:ae:07:9e:83:3e:2f:d9:f9:f5:46:8e:63:be:c1:e6:b4:
         dc:a6:cd:21:a8:86:0a:95:d9:2e:85:26:1a:fd:fc:b1:b6:57:
         42:6d:95:d1:33:f6:39:14:06:82:41:38:f5:8f:58:dc:80:5b:
         a4:d5:7d:95:78:fd:a7:9b:ff:fd:c5:a8:69:ab:26:e7:a7:a4:
         05:87:5b:a9:b7:b8:a3:20:0b:97:a9:45:85:dd:b3:8b:e5:89:
         37:8e:29:0d:fc:06:17:f6:38:40:0e:42:e4:12:06:fb:7b:f3:
         c6:11:68:62:df:e3:98:f4:13:d8:15:4f:8b:b1:69:d9:10:60:
         bc:64:2a:ea:31:b7:e4:b5:a3:3a:14:9b:26:e3:0b:7b:fd:02:
         8e:b6:99:c1:38:97:59:36:f6:a8:74:a2:86:b6:5e:eb:c6:64:
         ea:cf:a0:a3:f9:6e:9e:ba:2d:11:b6:86:98:08:58:2d:c9:ac:
         25:64:f2:5e:75:b4:38:c1:ae:7f:5a:46:83:ea:51:ca:b6:f1:
         99:11:35:6b:a5:6a:7b:c6:00:b0:e7:f8:be:64:b2:ad:c8:c2:
         f1:ac:e3:51:ea:a4:93:e0:79:c8:e1:81:40:c9:0a:5b:e1:12:
         3c:c1:60:2a:e3:97:c0:89:42:ca:94:cf:46:98:12:69:bb:98:
         d0:c2:d3:0d:72:4b:47:6e:e5:93:c4:32:28:63:87:43:e4:b0:
         32:3e:0a:d3:4b:bf:23:9b:14:29:41:2b:9a:04:1f:93:2d:f1:
         c7:39:48:3c:ad:5a:12:7f
-----BEGIN CERTIFICATE-----
MIIGEzCCA/ugAwIBAgIQfVtRJrR2uhHbdBYLvFMNpzANBgkqhkiG9w0BAQwFADCB
iDELMAkGA1UEBhMCVVMxEzARBgNVBAgTCk5ldyBKZXJzZXkxFDASBgNVBAcTC0pl
cnNleSBDaXR5MR4wHAYDVQQKExVUaGUgVVNFUlRSVVNUIE5ldHdvcmsxLjAsBgNV
BAMTJVVTRVJUcnVzdCBSU0EgQ2VydGlmaWNhdGlvbiBBdXRob3JpdHkwHhcNMTgx
MTAyMDAwMDAwWhcNMzAxMjMxMjM1OTU5WjCBjzELMAkGA1UEBhMCR0IxGzAZBgNV
BAgTEkdyZWF0ZXIgTWFuY2hlc3RlcjEQMA4GA1UEBxMHU2FsZm9yZDEYMBYGA1UE
ChMPU2VjdGlnbyBMaW1pdGVkMTcwNQYDVQQDEy5TZWN0aWdvIFJTQSBEb21haW4g
VmFsaWRhdGlvbiBTZWN1cmUgU2VydmVyIENBMIIBIjANBgkqhkiG9w0BAQEFAAOC
AQ8AMIIBCgKCAQEA1nMz1tc8INAA0hdFuNY+B6I/x0HuMjDJsGz99J/LEpgPLT+N
TQEMgg8Xf2Iu6bhIefsWg06t1zIlk7cHv7lQP6lMw0Aq6Tn/2YHKHxYyQdqAJrkj
eocgHuP/IJo8lURvh3UGkEC0MpMWCRAIIz7S3YcPb11RFGoKacVPAXJpz9OTTG0E
oKMbgn6xmrntxZ7FN3ifmgg0+1YuWMQJDgZkW7w33PGfKGioVrCSo1yfu4iYCBsk
Haswha6vsC6eep3BwEIc4gLw6uBK0u+QDrTBQBbwb4VCSmT3pDCg/r8uoydajotY
uK3DGReEY+1vVv2Dy2A0xHS+5p3b4eTlygxfFQIDAQABo4IBbjCCAWowHwYDVR0j
BBgwFoAUU3m/WqorSs9UgOHYm8Cd8rIDZsswHQYDVR0OBBYEFI2MXsRUrYrhd+mb
+ZsF4bgBjWHhMA4GA1UdDwEB/wQEAwIBhjASBgNVHRMBAf8ECDAGAQH/AgEAMB0G
A1UdJQQWMBQGCCsGAQUFBwMBBggrBgEFBQcDAjAbBgNVHSAEFDASMAYGBFUdIAAw
CAYGZ4EMAQIBMFAGA1UdHwRJMEcwRaBDoEGGP2h0dHA6Ly9jcmwudXNlcnRydXN0
LmNvbS9VU0VSVHJ1c3RSU0FDZXJ0aWZpY2F0aW9uQXV0aG9yaXR5LmNybDB2Bggr
BgEFBQcBAQRqMGgwPwYIKwYBBQUHMAKGM2h0dHA6Ly9jcnQudXNlcnRydXN0LmNv
bS9VU0VSVHJ1c3RSU0FBZGRUcnVzdENBLmNydDAlBggrBgEFBQcwAYYZaHR0cDov
L29jc3AudXNlcnRydXN0LmNvbTANBgkqhkiG9w0BAQwFAAOCAgEAMr9hvQ5Iw0/H
ukdN+Jx4GQHcEx2Ab/zDcLRSmjEzmldS+zGea6TvVKqJjUAXaPgREHzSyrHxVYbH
7rM2kYb2OVG/Rr8PoLq0935JxCo2F57kaDl6r5ROVm+yezu/Coa9zcV3HAO4OLGi
H19+24rcRki2aArPsrW04jTkZ6k4Zgle0rj8nSg6F0AnwnJOKf0hPHzPE/uWLMUx
RP0T7dWbqWlod3zu4f+k+TY4CFM5ooQ0nBnzvg6s1SQ36yOoeNDT5++SR2RiOSLv
xvcRviKFxmZEJCaOEDKNyJOuB56DPi/Z+fVGjmO+wea03KbNIaiGCpXZLoUmGv38
sbZXQm2V0TP2ORQGgkE49Y9Y3IBbpNV9lXj9p5v//cWoaasm56ekBYdbqbe4oyAL
l6lFhd2zi+WJN44pDfwGF/Y4QA5C5BIG+3vzxhFoYt/jmPQT2BVPi7Fp2RBgvGQq
6jG35LWjOhSbJuMLe/0CjraZwTiXWTb2qHSihrZe68Zk6s+go/lunrotEbaGmAhY
LcmsJWTyXnW0OMGuf1pGg+pRyrbxmRE1a6Vqe8YAsOf4vmSyrcjC8azjUeqkk+B5
yOGBQMkKW+ESPMFgKuOXwIlCypTPRpgSabuY0MLTDXJLR27lk8QyKGOHQ+SwMj4K
00u/I5sUKUErmgQfky3xxzlIPK1aEn8=
-----END CERTIFICATE-----
